target datalayout = "e-m:e-p270:32:32-p271:32:32-p272:64:64-i64:64-i128:128-f80:128-n8:16:32:64-S128"
target triple = "x86_64-pc-linux-gnu"

; Function Attrs: nounwind uwtable
define internal void @mix6to2_float(ptr noundef %0, ptr noundef %1, ptr noundef %2, i32 noundef %3) #0 {
  %5 = alloca ptr, align 8
  %6 = alloca ptr, align 8
  %7 = alloca ptr, align 8
  %8 = alloca i32, align 4
  %9 = alloca i32, align 4
  %10 = alloca float, align 4
  store ptr %0, ptr %5, align 8, !tbaa !127
  store ptr %1, ptr %6, align 8, !tbaa !127
  store ptr %2, ptr %7, align 8, !tbaa !93
  store i32 %3, ptr %8, align 4, !tbaa !11
  call void @llvm.lifetime.start.p0(i64 4, ptr %9) #9
  store i32 0, ptr %9, align 4, !tbaa !11
  br label %11

11:                                               ; preds = %96, %4
  %12 = load i32, ptr %9, align 4, !tbaa !11
  %13 = load i32, ptr %8, align 4, !tbaa !11
  %14 = icmp slt i32 %12, %13
  br i1 %14, label %15, label %99

15:                                               ; preds = %11
  call void @llvm.lifetime.start.p0(i64 4, ptr %10) #9
  %16 = load ptr, ptr %6, align 8, !tbaa !127
  %17 = getelementptr inbounds ptr, ptr %16, i64 2
  %18 = load ptr, ptr %17, align 8, !tbaa !93
  %19 = load i32, ptr %9, align 4, !tbaa !11
  %20 = sext i32 %19 to i64
  %21 = getelementptr inbounds float, ptr %18, i64 %20
  %22 = load float, ptr %21, align 4, !tbaa !30
  %23 = load ptr, ptr %7, align 8, !tbaa !93
  %24 = getelementptr inbounds float, ptr %23, i64 2
  %25 = load float, ptr %24, align 4, !tbaa !30
  %26 = load ptr, ptr %6, align 8, !tbaa !127
  %27 = getelementptr inbounds ptr, ptr %26, i64 3
  %28 = load ptr, ptr %27, align 8, !tbaa !93
  %29 = load i32, ptr %9, align 4, !tbaa !11
  %30 = sext i32 %29 to i64
  %31 = getelementptr inbounds float, ptr %28, i64 %30
  %32 = load float, ptr %31, align 4, !tbaa !30
  %33 = load ptr, ptr %7, align 8, !tbaa !93
  %34 = getelementptr inbounds float, ptr %33, i64 3
  %35 = load float, ptr %34, align 4, !tbaa !30
  %36 = fmul nsz float %32, %35
  %37 = call nsz float @llvm.fmuladd.f32(float %22, float %25, float %36)
  store float %37, ptr %10, align 4, !tbaa !30
  %38 = load float, ptr %10, align 4, !tbaa !30
  %39 = load ptr, ptr %6, align 8, !tbaa !127
  %40 = getelementptr inbounds ptr, ptr %39, i64 0
  %41 = load ptr, ptr %40, align 8, !tbaa !93
  %42 = load i32, ptr %9, align 4, !tbaa !11
  %43 = sext i32 %42 to i64
  %44 = getelementptr inbounds float, ptr %41, i64 %43
  %45 = load float, ptr %44, align 4, !tbaa !30
  %46 = load ptr, ptr %7, align 8, !tbaa !93
  %47 = getelementptr inbounds float, ptr %46, i64 0
  %48 = load float, ptr %47, align 4, !tbaa !30
  %49 = call nsz float @llvm.fmuladd.f32(float %45, float %48, float %38)
  %50 = load ptr, ptr %6, align 8, !tbaa !127
  %51 = getelementptr inbounds ptr, ptr %50, i64 4
  %52 = load ptr, ptr %51, align 8, !tbaa !93
  %53 = load i32, ptr %9, align 4, !tbaa !11
  %54 = sext i32 %53 to i64
  %55 = getelementptr inbounds float, ptr %52, i64 %54
  %56 = load float, ptr %55, align 4, !tbaa !30
  %57 = load ptr, ptr %7, align 8, !tbaa !93
  %58 = getelementptr inbounds float, ptr %57, i64 4
  %59 = load float, ptr %58, align 4, !tbaa !30
  %60 = call nsz float @llvm.fmuladd.f32(float %56, float %59, float %49)
  %61 = load ptr, ptr %5, align 8, !tbaa !127
  %62 = getelementptr inbounds ptr, ptr %61, i64 0
  %63 = load ptr, ptr %62, align 8, !tbaa !93
  %64 = load i32, ptr %9, align 4, !tbaa !11
  %65 = sext i32 %64 to i64
  %66 = getelementptr inbounds float, ptr %63, i64 %65
  store float %60, ptr %66, align 4, !tbaa !30
  %67 = load float, ptr %10, align 4, !tbaa !30
  %68 = load ptr, ptr %6, align 8, !tbaa !127
  %69 = getelementptr inbounds ptr, ptr %68, i64 1
  %70 = load ptr, ptr %69, align 8, !tbaa !93
  %71 = load i32, ptr %9, align 4, !tbaa !11
  %72 = sext i32 %71 to i64
  %73 = getelementptr inbounds float, ptr %70, i64 %72
  %74 = load float, ptr %73, align 4, !tbaa !30
  %75 = load ptr, ptr %7, align 8, !tbaa !93
  %76 = getelementptr inbounds float, ptr %75, i64 7
  %77 = load float, ptr %76, align 4, !tbaa !30
  %78 = call nsz float @llvm.fmuladd.f32(float %74, float %77, float %67)
  %79 = load ptr, ptr %6, align 8, !tbaa !127
  %80 = getelementptr inbounds ptr, ptr %79, i64 5
  %81 = load ptr, ptr %80, align 8, !tbaa !93
  %82 = load i32, ptr %9, align 4, !tbaa !11
  %83 = sext i32 %82 to i64
  %84 = getelementptr inbounds float, ptr %81, i64 %83
  %85 = load float, ptr %84, align 4, !tbaa !30
  %86 = load ptr, ptr %7, align 8, !tbaa !93
  %87 = getelementptr inbounds float, ptr %86, i64 11
  %88 = load float, ptr %87, align 4, !tbaa !30
  %89 = call nsz float @llvm.fmuladd.f32(float %85, float %88, float %78)
  %90 = load ptr, ptr %5, align 8, !tbaa !127
  %91 = getelementptr inbounds ptr, ptr %90, i64 1
  %92 = load ptr, ptr %91, align 8, !tbaa !93
  %93 = load i32, ptr %9, align 4, !tbaa !11
  %94 = sext i32 %93 to i64
  %95 = getelementptr inbounds float, ptr %92, i64 %94
  store float %89, ptr %95, align 4, !tbaa !30
  call void @llvm.lifetime.end.p0(i64 4, ptr %10) #9
  br label %96

96:                                               ; preds = %15
  %97 = load i32, ptr %9, align 4, !tbaa !11
  %98 = add nsw i32 %97, 1
  store i32 %98, ptr %9, align 4, !tbaa !11
  br label %11, !llvm.loop !129

99:                                               ; preds = %11
  call void @llvm.lifetime.end.p0(i64 4, ptr %9) #9
  ret void
}