; Function Attrs: nofree norecurse nosync nounwind memory(readwrite, inaccessiblemem: none) uwtable
define internal void @mix6to2_float(ptr noundef readonly captures(none) %0, ptr noundef readonly captures(none) %1, ptr noundef readonly captures(none) %2, i32 noundef %3) #9 {
  %5 = icmp sgt i32 %3, 0
  br i1 %5, label %.lr.ph, label %._crit_edge

.lr.ph:                                           ; preds = %4
  %6 = getelementptr inbounds nuw i8, ptr %1, i64 16
  %7 = load ptr, ptr %6, align 8, !tbaa !111
  %8 = getelementptr inbounds nuw i8, ptr %2, i64 8
  %9 = getelementptr inbounds nuw i8, ptr %1, i64 24
  %10 = load ptr, ptr %9, align 8, !tbaa !111
  %11 = getelementptr inbounds nuw i8, ptr %2, i64 12
  %12 = load ptr, ptr %1, align 8, !tbaa !111
  %13 = getelementptr inbounds nuw i8, ptr %1, i64 32
  %14 = load ptr, ptr %13, align 8, !tbaa !111
  %15 = getelementptr inbounds nuw i8, ptr %2, i64 16
  %16 = load ptr, ptr %0, align 8, !tbaa !111
  %17 = getelementptr inbounds nuw i8, ptr %1, i64 8
  %18 = load ptr, ptr %17, align 8, !tbaa !111
  %19 = getelementptr inbounds nuw i8, ptr %2, i64 28
  %20 = getelementptr inbounds nuw i8, ptr %1, i64 40
  %21 = load ptr, ptr %20, align 8, !tbaa !111
  %22 = getelementptr inbounds nuw i8, ptr %2, i64 44
  %23 = getelementptr inbounds nuw i8, ptr %0, i64 8
  %24 = load ptr, ptr %23, align 8, !tbaa !111
  %wide.trip.count = zext nneg i32 %3 to i64
  br label %25

25:                                               ; preds = %.lr.ph, %25
  %indvars.iv = phi i64 [ 0, %.lr.ph ], [ %indvars.iv.next, %25 ]
  %26 = getelementptr inbounds nuw float, ptr %7, i64 %indvars.iv
  %27 = load float, ptr %26, align 4, !tbaa !25
  %28 = load float, ptr %8, align 4, !tbaa !25
  %29 = getelementptr inbounds nuw float, ptr %10, i64 %indvars.iv
  %30 = load float, ptr %29, align 4, !tbaa !25
  %31 = load float, ptr %11, align 4, !tbaa !25
  %32 = fmul nsz float %30, %31
  %33 = tail call nsz float @llvm.fmuladd.f32(float %27, float %28, float %32)
  %34 = getelementptr inbounds nuw float, ptr %12, i64 %indvars.iv
  %35 = load float, ptr %34, align 4, !tbaa !25
  %36 = load float, ptr %2, align 4, !tbaa !25
  %37 = tail call nsz float @llvm.fmuladd.f32(float %35, float %36, float %33)
  %38 = getelementptr inbounds nuw float, ptr %14, i64 %indvars.iv
  %39 = load float, ptr %38, align 4, !tbaa !25
  %40 = load float, ptr %15, align 4, !tbaa !25
  %41 = tail call nsz float @llvm.fmuladd.f32(float %39, float %40, float %37)
  %42 = getelementptr inbounds nuw float, ptr %16, i64 %indvars.iv
  store float %41, ptr %42, align 4, !tbaa !25
  %43 = getelementptr inbounds nuw float, ptr %18, i64 %indvars.iv
  %44 = load float, ptr %43, align 4, !tbaa !25
  %45 = load float, ptr %19, align 4, !tbaa !25
  %46 = tail call nsz float @llvm.fmuladd.f32(float %44, float %45, float %33)
  %47 = getelementptr inbounds nuw float, ptr %21, i64 %indvars.iv
  %48 = load float, ptr %47, align 4, !tbaa !25
  %49 = load float, ptr %22, align 4, !tbaa !25
  %50 = tail call nsz float @llvm.fmuladd.f32(float %48, float %49, float %46)
  %51 = getelementptr inbounds nuw float, ptr %24, i64 %indvars.iv
  store float %50, ptr %51, align 4, !tbaa !25
  %indvars.iv.next = add nuw nsw i64 %indvars.iv, 1
  %exitcond.not = icmp eq i64 %indvars.iv.next, %wide.trip.count
  br i1 %exitcond.not, label %._crit_edge, label %25, !llvm.loop !113

._crit_edge:                                      ; preds = %25, %4
  ret void
}